; log4cxx.def : Declares the module parameters.

LIBRARY   

EXPORTS

;class AsyncAppender
??0AsyncAppender@log4cxx@@QAE@XZ

;class Appender
?getStaticClass@Appender@log4cxx@@SAABVClass@helpers@2@XZ

;class Class
?getName@Class@helpers@log4cxx@@QBEABV?$basic_string@DU?$char_traits@D@std@@V?$allocator@D@2@@std@@XZ

;class ConsoleAppender
?getStaticClass@ConsoleAppender@log4cxx@@SAABVClass@helpers@2@XZ
??0ConsoleAppender@log4cxx@@QAE@V?$ObjectPtrT@VLayout@log4cxx@@@helpers@1@ABV?$basic_string@DU?$char_traits@D@std@@V?$allocator@D@2@@std@@@Z

;class DateFormat
?format@DateFormat@helpers@log4cxx@@UAEXAAV?$basic_ostream@DU?$char_traits@D@std@@@std@@_J@Z
??0DateFormat@helpers@log4cxx@@QAE@ABV?$basic_string@DU?$char_traits@D@std@@V?$allocator@D@2@@std@@0@Z

;class DateLayout
?formatDate@DateLayout@helpers@log4cxx@@QAEXAAV?$basic_ostream@DU?$char_traits@D@std@@@std@@ABVLoggingEvent@spi@3@@Z

;class DenyAllFilter
?getClass@DenyAllFilter@varia@log4cxx@@UBEABVClass@helpers@3@XZ
?getStaticClass@DenyAllFilter@varia@log4cxx@@SAABVClass@helpers@3@XZ

;class DOMConfigurator
?doConfigure@DOMConfigurator@xml@log4cxx@@UAEXABV?$basic_string@DU?$char_traits@D@std@@V?$allocator@D@2@@std@@V?$ObjectPtrT@VLoggerRepository@spi@log4cxx@@@helpers@3@@Z
?configure@DOMConfigurator@xml@log4cxx@@SAXABV?$basic_string@DU?$char_traits@D@std@@V?$allocator@D@2@@std@@@Z
?configureAndWatch@DOMConfigurator@xml@log4cxx@@SAXABV?$basic_string@DU?$char_traits@D@std@@V?$allocator@D@2@@std@@@Z
?configureAndWatch@DOMConfigurator@xml@log4cxx@@SAXABV?$basic_string@DU?$char_traits@D@std@@V?$allocator@D@2@@std@@J@Z

;class FileAppender
?getStaticClass@FileAppender@log4cxx@@SAABVClass@helpers@2@XZ
??0FileAppender@log4cxx@@QAE@V?$ObjectPtrT@VLayout@log4cxx@@@helpers@1@ABV?$basic_string@DU?$char_traits@D@std@@V?$allocator@D@2@@std@@_N@Z

;class Filter
?getClass@Filter@spi@log4cxx@@UBEABVClass@helpers@3@XZ
?getStaticClass@Filter@spi@log4cxx@@SAABVClass@helpers@3@XZ

;class HTMLLayout
??0HTMLLayout@log4cxx@@QAE@XZ

;class InetAddress
?toString@InetAddress@helpers@log4cxx@@QBE?AV?$basic_string@DU?$char_traits@D@std@@V?$allocator@D@2@@std@@XZ

;class Layout
?getStaticClass@Layout@log4cxx@@SAABVClass@helpers@2@XZ
?getClass@Layout@log4cxx@@UBEABVClass@helpers@2@XZ

;class Level
?getAllLevel@Level@log4cxx@@SAABV12@XZ
?getFatalLevel@Level@log4cxx@@SAABV12@XZ
?getErrorLevel@Level@log4cxx@@SAABV12@XZ
?getWarnLevel@Level@log4cxx@@SAABV12@XZ
?getInfoLevel@Level@log4cxx@@SAABV12@XZ
?getDebugLevel@Level@log4cxx@@SAABV12@XZ
?getOffLevel@Level@log4cxx@@SAABV12@XZ

;class LevelMatchFilter
?setLevelToMatch@LevelMatchFilter@varia@log4cxx@@QAEXABV?$basic_string@DU?$char_traits@D@std@@V?$allocator@D@2@@std@@@Z
??0LevelMatchFilter@varia@log4cxx@@QAE@XZ

;class LevelRangeFilter
??0LevelRangeFilter@varia@log4cxx@@QAE@XZ

;class Logger
?getClass@Logger@log4cxx@@UBEABVClass@helpers@2@XZ
?getStaticClass@Logger@log4cxx@@SAABVClass@helpers@2@XZ
??0Logger@log4cxx@@IAE@ABV?$basic_string@DU?$char_traits@D@std@@V?$allocator@D@2@@std@@@Z
??1Logger@log4cxx@@UAE@XZ
?addAppender@Logger@log4cxx@@UAEXV?$ObjectPtrT@VAppender@log4cxx@@@helpers@2@@Z
?assertLog@Logger@log4cxx@@QAEX_NABV?$basic_string@DU?$char_traits@D@std@@V?$allocator@D@2@@std@@@Z
?callAppenders@Logger@log4cxx@@QAEXABVLoggingEvent@spi@2@@Z
?closeNestedAppenders@Logger@log4cxx@@QAEXXZ
?debug@Logger@log4cxx@@QAEXABV?$basic_string@DU?$char_traits@D@std@@V?$allocator@D@2@@std@@PBDH@Z
?error@Logger@log4cxx@@QAEXABV?$basic_string@DU?$char_traits@D@std@@V?$allocator@D@2@@std@@PBDH@Z
?fatal@Logger@log4cxx@@QAEXABV?$basic_string@DU?$char_traits@D@std@@V?$allocator@D@2@@std@@PBDH@Z
?forcedLog@Logger@log4cxx@@IAEXABV?$basic_string@DU?$char_traits@D@std@@V?$allocator@D@2@@std@@ABVLevel@2@0PBDH@Z
?getAdditivity@Logger@log4cxx@@QAE_NXZ
?getAllAppenders@Logger@log4cxx@@UAE?AV?$vector@V?$ObjectPtrT@VAppender@log4cxx@@@helpers@log4cxx@@V?$allocator@V?$ObjectPtrT@VAppender@log4cxx@@@helpers@log4cxx@@@std@@@std@@XZ
?getAppender@Logger@log4cxx@@UAE?AV?$ObjectPtrT@VAppender@log4cxx@@@helpers@2@ABV?$basic_string@DU?$char_traits@D@std@@V?$allocator@D@2@@std@@@Z
?getEffectiveLevel@Logger@log4cxx@@UAEABVLevel@2@XZ
?getLoggerRepository@Logger@log4cxx@@QAE?AV?$ObjectPtrT@VLoggerRepository@spi@log4cxx@@@helpers@2@XZ
?getParent@Logger@log4cxx@@QAE?AV?$ObjectPtrT@VLogger@log4cxx@@@helpers@2@XZ
?getLevel@Logger@log4cxx@@QAEABVLevel@2@XZ
?info@Logger@log4cxx@@QAEXABV?$basic_string@DU?$char_traits@D@std@@V?$allocator@D@2@@std@@PBDH@Z
?isAttached@Logger@log4cxx@@UAE_NV?$ObjectPtrT@VAppender@log4cxx@@@helpers@2@@Z
?isDebugEnabled@Logger@log4cxx@@QAE_NXZ
?isEnabledFor@Logger@log4cxx@@QAE_NABVLevel@2@@Z
?isInfoEnabled@Logger@log4cxx@@QAE_NXZ
?isErrorEnabled@Logger@log4cxx@@QAE_NXZ
?isWarnEnabled@Logger@log4cxx@@QAE_NXZ
?isFatalEnabled@Logger@log4cxx@@QAE_NXZ
?log@Logger@log4cxx@@QAEXABVLevel@2@ABV?$basic_string@DU?$char_traits@D@std@@V?$allocator@D@2@@std@@PBDH@Z
?removeAllAppenders@Logger@log4cxx@@UAEXXZ
?removeAppender@Logger@log4cxx@@UAEXV?$ObjectPtrT@VAppender@log4cxx@@@helpers@2@@Z
?removeAppender@Logger@log4cxx@@UAEXABV?$basic_string@DU?$char_traits@D@std@@V?$allocator@D@2@@std@@@Z
?setAdditivity@Logger@log4cxx@@QAEX_N@Z
?setHierarchy@Logger@log4cxx@@IAEXPAVLoggerRepository@spi@2@@Z
?setLevel@Logger@log4cxx@@UAEXABVLevel@2@@Z
?warn@Logger@log4cxx@@QAEXABV?$basic_string@DU?$char_traits@D@std@@V?$allocator@D@2@@std@@PBDH@Z
?getLogger@Logger@log4cxx@@SA?AV?$ObjectPtrT@VLogger@log4cxx@@@helpers@2@ABV?$basic_string@DU?$char_traits@D@std@@V?$allocator@D@2@@std@@@Z
?getRootLogger@Logger@log4cxx@@SA?AV?$ObjectPtrT@VLogger@log4cxx@@@helpers@2@XZ
?getLogger@Logger@log4cxx@@SA?AV?$ObjectPtrT@VLogger@log4cxx@@@helpers@2@ABV?$basic_string@DU?$char_traits@D@std@@V?$allocator@D@2@@std@@V?$ObjectPtrT@VLoggerFactory@spi@log4cxx@@@42@@Z
??1ClassLogger@Logger@log4cxx@@QAE@XZ

;class LoggingEvent
??0LoggingEvent@spi@log4cxx@@QAE@ABV?$basic_string@DU?$char_traits@D@std@@V?$allocator@D@2@@std@@ABV?$ObjectPtrT@VLogger@log4cxx@@@helpers@2@ABVLevel@2@0PBDH@Z

;class LogLog
?setInternalDebugging@LogLog@helpers@log4cxx@@SAX_N@Z
?error@LogLog@helpers@log4cxx@@SAXABV?$basic_string@DU?$char_traits@D@std@@V?$allocator@D@2@@std@@AAVException@23@@Z

;class LogManager
?getLoggerRepository@LogManager@log4cxx@@SA?AV?$ObjectPtrT@VLoggerRepository@spi@log4cxx@@@helpers@2@XZ

;class MDC
?clear@MDC@log4cxx@@SAXXZ
?remove@MDC@log4cxx@@SA?AV?$basic_string@DU?$char_traits@D@std@@V?$allocator@D@2@@std@@ABV34@@Z
?put@MDC@log4cxx@@SAXABV?$basic_string@DU?$char_traits@D@std@@V?$allocator@D@2@@std@@0@Z
?get@MDC@log4cxx@@SA?AV?$basic_string@DU?$char_traits@D@std@@V?$allocator@D@2@@std@@ABV34@@Z

;class NDC
?pop@NDC@log4cxx@@SA?AV?$basic_string@DU?$char_traits@D@std@@V?$allocator@D@2@@std@@XZ
?peek@NDC@log4cxx@@SA?AV?$basic_string@DU?$char_traits@D@std@@V?$allocator@D@2@@std@@XZ
?push@NDC@log4cxx@@SAXABV?$basic_string@DU?$char_traits@D@std@@V?$allocator@D@2@@std@@@Z
?clear@NDC@log4cxx@@SAXXZ
?getDepth@NDC@log4cxx@@SAHXZ
?get@NDC@log4cxx@@SA?AV?$basic_string@DU?$char_traits@D@std@@V?$allocator@D@2@@std@@XZ

;class Object
?getClass@Object@helpers@log4cxx@@UBEABVClass@23@XZ
?getStaticClass@Object@helpers@log4cxx@@SAABVClass@23@XZ

;class ObjectImpl
??1ObjectImpl@helpers@log4cxx@@UAE@XZ
??0ObjectImpl@helpers@log4cxx@@QAE@XZ
?addRef@ObjectImpl@helpers@log4cxx@@UAEXXZ
?releaseRef@ObjectImpl@helpers@log4cxx@@UAEXXZ
?lock@ObjectImpl@helpers@log4cxx@@UAEXXZ
?unlock@ObjectImpl@helpers@log4cxx@@UAEXXZ
?wait@ObjectImpl@helpers@log4cxx@@UAEXXZ
?notify@ObjectImpl@helpers@log4cxx@@UAEXXZ

;class ODBCAppender
??0ODBCAppender@db@log4cxx@@QAE@XZ
?setSql@ODBCAppender@db@log4cxx@@QAEXABV?$basic_string@DU?$char_traits@D@std@@V?$allocator@D@2@@std@@@Z

;class OptionConverter
?toFileSize@OptionConverter@helpers@log4cxx@@SAJABV?$basic_string@DU?$char_traits@D@std@@V?$allocator@D@2@@std@@J@Z

;class OptionHandler
?getStaticClass@OptionHandler@spi@log4cxx@@SAABVClass@helpers@3@XZ
?getClass@OptionHandler@spi@log4cxx@@UBEABVClass@helpers@3@XZ

;class PatternLayout
??0PatternLayout@log4cxx@@QAE@XZ
?getStaticClass@PatternLayout@log4cxx@@SAABVClass@helpers@2@XZ
?setConversionPattern@PatternLayout@log4cxx@@QAEXABV?$basic_string@DU?$char_traits@D@std@@V?$allocator@D@2@@std@@@Z

;class PropertyConfigurator
?doConfigure@PropertyConfigurator@log4cxx@@UAEXABV?$basic_string@DU?$char_traits@D@std@@V?$allocator@D@2@@std@@V?$ObjectPtrT@VLoggerRepository@spi@log4cxx@@@helpers@2@@Z
?configure@PropertyConfigurator@log4cxx@@SAXABV?$basic_string@DU?$char_traits@D@std@@V?$allocator@D@2@@std@@@Z
?configureAndWatch@PropertyConfigurator@log4cxx@@SAXABV?$basic_string@DU?$char_traits@D@std@@V?$allocator@D@2@@std@@@Z
?configureAndWatch@PropertyConfigurator@log4cxx@@SAXABV?$basic_string@DU?$char_traits@D@std@@V?$allocator@D@2@@std@@J@Z
?configure@PropertyConfigurator@log4cxx@@SAXAAVProperties@helpers@2@@Z
?doConfigure@PropertyConfigurator@log4cxx@@QAEXAAVProperties@helpers@2@V?$ObjectPtrT@VLoggerRepository@spi@log4cxx@@@42@@Z

;class RollingFileAppender
;??0RollingFileAppender@log4cxx@@QAE@V?$ObjectPtr@VLayout@log4cxx@@@helpers@1@ABV?$basic_string@DU?$char_traits@D@std@@V?$allocator@D@2@@std@@_N@Z

;class Runnable
?getStaticClass@Runnable@helpers@log4cxx@@SAABVClass@23@XZ

;class ServerSocket
?accept@ServerSocket@helpers@log4cxx@@QAE?AV?$ObjectPtrT@VSocket@helpers@log4cxx@@@23@XZ
??0ServerSocket@helpers@log4cxx@@QAE@H@Z
??1ServerSocket@helpers@log4cxx@@QAE@XZ

;class SimpleLayout
?getStaticClass@SimpleLayout@log4cxx@@SAABVClass@helpers@2@XZ
?format@SimpleLayout@log4cxx@@UAEXAAV?$basic_ostream@DU?$char_traits@D@std@@@std@@ABVLoggingEvent@spi@2@@Z
?getClass@SimpleLayout@log4cxx@@UBEABVClass@helpers@2@XZ

;class SocketAppender
??0SocketAppender@net@log4cxx@@QAE@ABV?$basic_string@DU?$char_traits@D@std@@V?$allocator@D@2@@std@@H@Z

;class SocketNode
??0SocketNode@net@log4cxx@@QAE@V?$ObjectPtrT@VSocket@helpers@log4cxx@@@helpers@2@V?$ObjectPtrT@VLoggerRepository@spi@log4cxx@@@42@@Z

;class StringMatchFilter
??0StringMatchFilter@varia@log4cxx@@QAE@XZ

;class System
?currentTimeMillis@System@helpers@log4cxx@@SA_JXZ

;class TelnetAppender
??0TelnetAppender@net@log4cxx@@QAE@XZ

;class Thread
?start@Thread@helpers@log4cxx@@QAEXXZ
??0Thread@helpers@log4cxx@@QAE@V?$ObjectPtrT@VRunnable@helpers@log4cxx@@@12@@Z
?sleep@Thread@helpers@log4cxx@@SAXJ@Z

;class TTCCLayout
??0TTCCLayout@log4cxx@@QAE@XZ

;class XMLLayout
??0XMLLayout@xml@log4cxx@@QAE@XZ
